target datalayout = "e-m:e-p270:32:32-p271:32:32-p272:64:64-i64:64-i128:128-f80:128-n8:16:32:64-S128"
target triple = "x86_64-pc-linux-gnu"

%"class.Eigen::Matrix" = type { %"class.Eigen::PlainObjectBase" }
%"class.Eigen::PlainObjectBase" = type { %"class.Eigen::DenseStorage" }
%"class.Eigen::DenseStorage" = type { %"struct.Eigen::internal::plain_array" }
%"struct.Eigen::internal::plain_array" = type { [3 x float] }
%"struct.nori::TVector" = type { %"class.Eigen::Matrix" }

; Function Attrs: mustprogress nounwind uwtable
define linkonce_odr hidden void @_ZN5Eigen8internal28check_static_allocation_sizeIfLi3EEEvv() #5 comdat {
  ret void
}

; Function Attrs: mustprogress uwtable
define linkonce_odr hidden void @_ZN5Eigen8internal11plain_arrayIfLi3ELi0ELi0EEC2Ev(ptr noundef nonnull align 4 dereferenceable(12) %0) unnamed_addr #4 comdat align 2 {
  %2 = alloca ptr, align 8
  store ptr %0, ptr %2, align 8
  call void @_ZN5Eigen8internal28check_static_allocation_sizeIfLi3EEEvv()
  ret void
}

; Function Attrs: mustprogress nounwind uwtable
define linkonce_odr hidden void @_ZN5Eigen9DenseBaseINS_6MatrixIfLi3ELi1ELi0ELi3ELi1EEEEC2Ev(ptr noundef nonnull align 1 dereferenceable(1) %0) unnamed_addr #5 comdat align 2 {
  %2 = alloca ptr, align 8
  store ptr %0, ptr %2, align 8
  ret void
}

; Function Attrs: mustprogress uwtable
define linkonce_odr hidden void @_ZN5Eigen12DenseStorageIfLi3ELi3ELi1ELi0EEC2Ev(ptr noundef nonnull align 4 dereferenceable(12) %0) unnamed_addr #4 comdat align 2 {
  %2 = alloca ptr, align 8
  store ptr %0, ptr %2, align 8
  %3 = load ptr, ptr %2, align 8
  %4 = getelementptr inbounds %"class.Eigen::DenseStorage", ptr %3, i32 0, i32 0
  call void @_ZN5Eigen8internal11plain_arrayIfLi3ELi0ELi0EEC2Ev(ptr noundef nonnull align 4 dereferenceable(12) %4)
  ret void
}

; Function Attrs: mustprogress uwtable
define linkonce_odr hidden void @_ZN5Eigen10MatrixBaseINS_6MatrixIfLi3ELi1ELi0ELi3ELi1EEEEC2Ev(ptr noundef nonnull align 1 dereferenceable(1) %0) unnamed_addr #4 comdat align 2 {
  %2 = alloca ptr, align 8
  store ptr %0, ptr %2, align 8
  %3 = load ptr, ptr %2, align 8
  call void @_ZN5Eigen9DenseBaseINS_6MatrixIfLi3ELi1ELi0ELi3ELi1EEEEC2Ev(ptr noundef nonnull align 1 dereferenceable(1) %3)
  ret void
}

; Function Attrs: mustprogress nounwind uwtable
define linkonce_odr hidden noundef ptr @_ZN5Eigen12DenseStorageIfLi3ELi3ELi1ELi0EE4dataEv(ptr noundef nonnull align 4 dereferenceable(12) %0) #5 comdat align 2 {
  %2 = alloca ptr, align 8
  store ptr %0, ptr %2, align 8
  %3 = load ptr, ptr %2, align 8
  %4 = getelementptr inbounds %"class.Eigen::DenseStorage", ptr %3, i32 0, i32 0
  %5 = getelementptr inbounds %"struct.Eigen::internal::plain_array", ptr %4, i32 0, i32 0
  %6 = getelementptr inbounds [3 x float], ptr %5, i64 0, i64 0
  ret ptr %6
}

; Function Attrs: mustprogress nounwind uwtable
define linkonce_odr hidden void @_ZN5Eigen15PlainObjectBaseINS_6MatrixIfLi3ELi1ELi0ELi3ELi1EEEE22_check_template_paramsEv() #5 comdat align 2 {
  ret void
}

; Function Attrs: mustprogress uwtable
define linkonce_odr hidden void @_ZN5Eigen15PlainObjectBaseINS_6MatrixIfLi3ELi1ELi0ELi3ELi1EEEEC2Ev(ptr noundef nonnull align 4 dereferenceable(12) %0) unnamed_addr #4 comdat align 2 {
  %2 = alloca ptr, align 8
  store ptr %0, ptr %2, align 8
  %3 = load ptr, ptr %2, align 8
  call void @_ZN5Eigen10MatrixBaseINS_6MatrixIfLi3ELi1ELi0ELi3ELi1EEEEC2Ev(ptr noundef nonnull align 1 dereferenceable(1) %3)
  %4 = getelementptr inbounds %"class.Eigen::PlainObjectBase", ptr %3, i32 0, i32 0
  call void @_ZN5Eigen12DenseStorageIfLi3ELi3ELi1ELi0EEC2Ev(ptr noundef nonnull align 4 dereferenceable(12) %4)
  ret void
}

; Function Attrs: mustprogress uwtable
define linkonce_odr hidden void @_ZN5Eigen6MatrixIfLi3ELi1ELi0ELi3ELi1EEC2ERKfS3_S3_(ptr noundef nonnull align 4 dereferenceable(12) %0, ptr noundef nonnull align 4 dereferenceable(4) %1, ptr noundef nonnull align 4 dereferenceable(4) %2, ptr noundef nonnull align 4 dereferenceable(4) %3) unnamed_addr #4 comdat align 2 {
  %5 = alloca ptr, align 8
  %6 = alloca ptr, align 8
  %7 = alloca ptr, align 8
  %8 = alloca ptr, align 8
  store ptr %0, ptr %5, align 8
  store ptr %1, ptr %6, align 8
  store ptr %2, ptr %7, align 8
  store ptr %3, ptr %8, align 8
  %9 = load ptr, ptr %5, align 8
  call void @_ZN5Eigen15PlainObjectBaseINS_6MatrixIfLi3ELi1ELi0ELi3ELi1EEEEC2Ev(ptr noundef nonnull align 4 dereferenceable(12) %9)
  call void @_ZN5Eigen15PlainObjectBaseINS_6MatrixIfLi3ELi1ELi0ELi3ELi1EEEE22_check_template_paramsEv()
  %10 = load ptr, ptr %6, align 8
  %11 = load float, ptr %10, align 4
  %12 = getelementptr inbounds %"class.Eigen::PlainObjectBase", ptr %9, i32 0, i32 0
  %13 = call noundef ptr @_ZN5Eigen12DenseStorageIfLi3ELi3ELi1ELi0EE4dataEv(ptr noundef nonnull align 4 dereferenceable(12) %12)
  %14 = getelementptr inbounds float, ptr %13, i64 0
  store float %11, ptr %14, align 4
  %15 = load ptr, ptr %7, align 8
  %16 = load float, ptr %15, align 4
  %17 = getelementptr inbounds %"class.Eigen::PlainObjectBase", ptr %9, i32 0, i32 0
  %18 = call noundef ptr @_ZN5Eigen12DenseStorageIfLi3ELi3ELi1ELi0EE4dataEv(ptr noundef nonnull align 4 dereferenceable(12) %17)
  %19 = getelementptr inbounds float, ptr %18, i64 1
  store float %16, ptr %19, align 4
  %20 = load ptr, ptr %8, align 8
  %21 = load float, ptr %20, align 4
  %22 = getelementptr inbounds %"class.Eigen::PlainObjectBase", ptr %9, i32 0, i32 0
  %23 = call noundef ptr @_ZN5Eigen12DenseStorageIfLi3ELi3ELi1ELi0EE4dataEv(ptr noundef nonnull align 4 dereferenceable(12) %22)
  %24 = getelementptr inbounds float, ptr %23, i64 2
  store float %21, ptr %24, align 4
  ret void
}

; Function Attrs: mustprogress uwtable
define linkonce_odr hidden void @_ZN4nori7TVectorIfLi3EEC2Efff(ptr noundef nonnull align 4 dereferenceable(12) %0, float noundef %1, float noundef %2, float noundef %3) unnamed_addr #4 comdat align 2 {
  %5 = alloca ptr, align 8
  %6 = alloca float, align 4
  %7 = alloca float, align 4
  %8 = alloca float, align 4
  store ptr %0, ptr %5, align 8
  store float %1, ptr %6, align 4
  store float %2, ptr %7, align 4
  store float %3, ptr %8, align 4
  %9 = load ptr, ptr %5, align 8
  call void @_ZN5Eigen6MatrixIfLi3ELi1ELi0ELi3ELi1EEC2ERKfS3_S3_(ptr noundef nonnull align 4 dereferenceable(12) %9, ptr noundef nonnull align 4 dereferenceable(4) %6, ptr noundef nonnull align 4 dereferenceable(4) %7, ptr noundef nonnull align 4 dereferenceable(4) %8)
  ret void
}

; Function Attrs: mustprogress uwtable
define hidden void @_ZN4nori18sphericalDirectionEff(ptr dead_on_unwind noalias writable sret(%"struct.nori::TVector") align 4 %0, float noundef %1, float noundef %2) #4 {
  %4 = alloca ptr, align 8
  %5 = alloca float, align 4
  %6 = alloca float, align 4
  %7 = alloca float, align 4
  %8 = alloca float, align 4
  %9 = alloca float, align 4
  %10 = alloca float, align 4
  store ptr %0, ptr %4, align 8
  store float %1, ptr %5, align 4
  store float %2, ptr %6, align 4
  %11 = load float, ptr %5, align 4
  call void @sincosf(float noundef %11, ptr noundef %7, ptr noundef %8) #3
  %12 = load float, ptr %6, align 4
  call void @sincosf(float noundef %12, ptr noundef %9, ptr noundef %10) #3
  %13 = load float, ptr %7, align 4
  %14 = load float, ptr %10, align 4
  %15 = fmul float %13, %14
  %16 = load float, ptr %7, align 4
  %17 = load float, ptr %9, align 4
  %18 = fmul float %16, %17
  %19 = load float, ptr %8, align 4
  call void @_ZN4nori7TVectorIfLi3EEC2Efff(ptr noundef nonnull align 4 dereferenceable(12) %0, float noundef %15, float noundef %18, float noundef %19)
  ret void
}