; Function Attrs: mustprogress nounwind uwtable
define hidden void @_ZN4nori18sphericalDirectionEff(ptr dead_on_unwind noalias nocapture writable writeonly sret(%"struct.nori::TVector") align 4 %0, float noundef %1, float noundef %2) local_unnamed_addr #4 {
  %4 = alloca float, align 4
  %5 = alloca float, align 4
  %6 = alloca float, align 4
  %7 = alloca float, align 4
  call void @sincosf(float noundef %1, ptr noundef nonnull %4, ptr noundef nonnull %5) #26
  call void @sincosf(float noundef %2, ptr noundef nonnull %6, ptr noundef nonnull %7) #26
  %8 = load float, ptr %4, align 4
  %9 = load float, ptr %7, align 4
  %10 = load float, ptr %6, align 4
  %11 = load float, ptr %5, align 4
  %12 = insertelement <2 x float> poison, float %8, i64 0
  %13 = shufflevector <2 x float> %12, <2 x float> poison, <2 x i32> zeroinitializer
  %14 = insertelement <2 x float> poison, float %9, i64 0
  %15 = insertelement <2 x float> %14, float %10, i64 1
  %16 = fmul <2 x float> %13, %15
  store <2 x float> %16, ptr %0, align 4
  %17 = getelementptr inbounds i8, ptr %0, i64 8
  store float %11, ptr %17, align 4
  ret void
}